EXPORTS 
	??_R0?AVbad_alloc@std@@@8 	 DATA
	??_R0?AVbad_array_new_length@std@@@8 	 DATA
	??_R0?AVexception@std@@@8 	 DATA
	??$<move>@AEAU?$pair@HH@std@@@@YA$$QEAU?$pair@HH@std@@AEAU01@@Z
	??$?0$$V@?$_Compressed_pair@V?$allocator@UMove@reversi@@@std@@V?$_Vector_val@U?$_Simple_types@UMove@reversi@@@std@@@2@$00@std@@QEAA@U_Zero_then_variadic_args_t@1@@Z
	??$?0AEAHAEAH$0A@@?$pair@HH@std@@QEAA@AEAH0@Z
	??$?0V?$allocator@UMove@reversi@@@std@@PEAUMove@reversi@@PEAU23@PEAU23@@?$_Compressed_pair@V?$allocator@UMove@reversi@@@std@@V?$_Vector_val@U?$_Simple_types@UMove@reversi@@@std@@@2@$00@std@@QEAA@U_One_then_variadic_args_t@1@$$QEAV?$allocator@UMove@reversi@@@1@$$QEAPEAUMove@reversi@@22@Z
	??$_Allocate@$0BA@U_Default_allocate_traits@std@@@std@@YAPEAX_K@Z
	??$_Allocate_at_least_helper@V?$allocator@UMove@reversi@@@std@@@std@@YAPEAUMove@reversi@@AEAV?$allocator@UMove@reversi@@@0@AEA_K@Z
	??$_Allocate_manually_vector_aligned@U_Default_allocate_traits@std@@@std@@YAPEAX_K@Z
	??$_Construct_in_place@UMove@reversi@@U12@@std@@YAXAEAUMove@reversi@@$$QEAU12@@Z
	??$_Copy_memmove@PEAUMove@reversi@@PEAU12@@std@@YAPEAUMove@reversi@@PEAU12@00@Z
	??$_Copy_memmove_tail@PEAUMove@reversi@@@std@@YAPEAUMove@reversi@@QEBDQEAU12@_K2@Z
	??$_Deallocate@$0BA@@std@@YAXPEAX_K@Z
	??$_Destroy_range@V?$allocator@UMove@reversi@@@std@@@std@@YAXPEAUMove@reversi@@QEAU12@AEAV?$allocator@UMove@reversi@@@0@@Z
	??$_Emplace_back@UMove@reversi@@@?$_Uninitialized_backout_al@V?$allocator@UMove@reversi@@@std@@@std@@QEAAX$$QEAUMove@reversi@@@Z
	??$_Emplace_back_with_unused_capacity@UMove@reversi@@@?$vector@UMove@reversi@@V?$allocator@UMove@reversi@@@std@@@std@@AEAAAEAUMove@reversi@@$$QEAU23@@Z
	??$_Emplace_one_at_back@UMove@reversi@@@?$vector@UMove@reversi@@V?$allocator@UMove@reversi@@@std@@@std@@AEAAAEAUMove@reversi@@$$QEAU23@@Z
	??$_Emplace_reallocate@UMove@reversi@@@?$vector@UMove@reversi@@V?$allocator@UMove@reversi@@@std@@@std@@AEAAPEAUMove@reversi@@QEAU23@$$QEAU23@@Z
	??$_Fill_memset@PEAW4Cell@reversi@@W412@@std@@YAXPEAW4Cell@reversi@@W412@_K@Z
	??$_Get_size_of_n@$07@std@@YA_K_K@Z
	??$_Get_unwrapped@AEBQEAUMove@reversi@@@std@@YA?A_TAEBQEAUMove@reversi@@@Z
	??$_Get_unwrapped_n@AEAPEAW4Cell@reversi@@_K@std@@YA?A_TAEAPEAW4Cell@reversi@@_K@Z
	??$_Max_limit@_J@std@@YA_JXZ
	??$_Seek_wrapped@PEAW4Cell@reversi@@AEAPEAW412@@std@@YAXAEAPEAW4Cell@reversi@@0@Z
	??$_Seek_wrapped@PEAW4Cell@reversi@@PEAW412@@std@@YAXAEAPEAW4Cell@reversi@@$$QEAPEAW412@@Z
	??$_To_address@PEAUMove@reversi@@@std@@YA?A_PAEBQEAUMove@reversi@@@Z
	??$_To_address@PEAW4Cell@reversi@@@std@@YA?A_PAEBQEAW4Cell@reversi@@@Z
	??$_Unfancy@UMove@reversi@@@std@@YAPEAUMove@reversi@@PEAU12@@Z
	??$_Unfancy_maybe_null@UMove@reversi@@@std@@YAPEAUMove@reversi@@PEAU12@@Z
	??$_Uninitialized_move@PEAUMove@reversi@@V?$allocator@UMove@reversi@@@std@@@std@@YAPEAUMove@reversi@@QEAU12@0PEAU12@AEAV?$allocator@UMove@reversi@@@0@@Z
	??$addressof@UMove@reversi@@@std@@YAPEAUMove@reversi@@AEAU12@@Z
	??$construct@UMove@reversi@@U12@@?$_Default_allocator_traits@V?$allocator@UMove@reversi@@@std@@@std@@SAXAEAV?$allocator@UMove@reversi@@@1@QEAUMove@reversi@@$$QEAU34@@Z
	??$exchange@PEAUMove@reversi@@$$T@std@@YAPEAUMove@reversi@@AEAPEAU12@$$QEA$$T@Z
	??$fill_n@PEAW4Cell@reversi@@_KW412@@std@@YAPEAW4Cell@reversi@@PEAW412@_KAEBW412@@Z
	??$forward@AEAH@std@@YAAEAHAEAH@Z
	??$forward@AEAPEAW4Cell@reversi@@@std@@YAAEAPEAW4Cell@reversi@@AEAPEAW412@@Z
	??$forward@H@std@@YA$$QEAHAEAH@Z
	??$forward@PEAUMove@reversi@@@std@@YA$$QEAPEAUMove@reversi@@AEAPEAU12@@Z
	??$forward@PEAW4Cell@reversi@@@std@@YA$$QEAPEAW4Cell@reversi@@AEAPEAW412@@Z
	??$forward@UMove@reversi@@@std@@YA$$QEAUMove@reversi@@AEAU12@@Z
	??$forward@V?$allocator@UMove@reversi@@@std@@@std@@YA$$QEAV?$allocator@UMove@reversi@@@0@AEAV10@@Z
	??$get@$00HH@std@@YA$$QEAH$$QEAU?$pair@HH@0@@Z
	??$get@$0A@HH@std@@YA$$QEAH$$QEAU?$pair@HH@0@@Z
	??$max@H@std@@YAAEBHAEBH0@Z
	??$min@H@std@@YAAEBHAEBH0@Z
	??$min@_K@std@@YAAEB_KAEB_K0@Z
	??$move@AEAPEAUMove@reversi@@@std@@YA$$QEAPEAUMove@reversi@@AEAPEAU12@@Z
	??$move@AEAUMove@reversi@@@std@@YA$$QEAUMove@reversi@@AEAU12@@Z
	??$move@AEAV?$allocator@UMove@reversi@@@std@@@std@@YA$$QEAV?$allocator@UMove@reversi@@@0@AEAV10@@Z
	??0?$_Uninitialized_backout_al@V?$allocator@UMove@reversi@@@std@@@std@@QEAA@PEAUMove@reversi@@AEAV?$allocator@UMove@reversi@@@1@@Z
	??0?$_Vector_val@U?$_Simple_types@UMove@reversi@@@std@@@std@@QEAA@PEAUMove@reversi@@00@Z
	??0?$_Vector_val@U?$_Simple_types@UMove@reversi@@@std@@@std@@QEAA@XZ
	??0?$allocator@UMove@reversi@@@std@@QEAA@XZ
	??0?$vector@UMove@reversi@@V?$allocator@UMove@reversi@@@std@@@std@@QEAA@$$QEAV01@@Z
	??0?$vector@UMove@reversi@@V?$allocator@UMove@reversi@@@std@@@std@@QEAA@XZ
	??0Board@reversi@@QEAA@XZ
	??0Game@reversi@@QEAA@XZ
	??0bad_alloc@std@@AEAA@QEBD@Z
	??0bad_alloc@std@@QEAA@AEBV01@@Z
	??0bad_array_new_length@std@@QEAA@AEBV01@@Z
	??0bad_array_new_length@std@@QEAA@XZ
	??0exception@std@@QEAA@AEBV01@@Z
	??0exception@std@@QEAA@QEBDH@Z
	??1?$_Uninitialized_backout_al@V?$allocator@UMove@reversi@@@std@@@std@@QEAA@XZ
	??1?$vector@UMove@reversi@@V?$allocator@UMove@reversi@@@std@@@std@@QEAA@XZ
	??1_Reallocation_guard@?$vector@UMove@reversi@@V?$allocator@UMove@reversi@@@std@@@std@@QEAA@XZ
	??1bad_alloc@std@@UEAA@XZ
	??1bad_array_new_length@std@@UEAA@XZ
	??1exception@std@@UEAA@XZ
	??2@YAPEAX_KPEAX@Z
	??A?$array@W4Cell@reversi@@$0EA@@std@@QEAAAEAW4Cell@reversi@@_K@Z
	??A?$array@W4Cell@reversi@@$0EA@@std@@QEBAAEBW4Cell@reversi@@_K@Z
	??A?$vector@UMove@reversi@@V?$allocator@UMove@reversi@@@std@@@std@@QEAAAEAUMove@reversi@@_K@Z
	??_7bad_alloc@std@@6B@
	??_7bad_array_new_length@std@@6B@
	??_7exception@std@@6B@
	?_Adjust_manually_vector_aligned@std@@YAXAEAPEAXAEA_K@Z
	?_Alloc_proxy@_Container_base0@std@@QEAAXAEBU_Fake_allocator@2@@Z
	?_Allocate@_Default_allocate_traits@std@@SAPEAX_K@Z
	?_Calculate_growth@?$vector@UMove@reversi@@V?$allocator@UMove@reversi@@@std@@@std@@AEBA_K_K@Z
	?_Change_array@?$vector@UMove@reversi@@V?$allocator@UMove@reversi@@@std@@@std@@AEAAXQEAUMove@reversi@@_K1@Z
	?_Get_first@?$_Compressed_pair@V?$allocator@UMove@reversi@@@std@@V?$_Vector_val@U?$_Simple_types@UMove@reversi@@@std@@@2@$00@std@@QEAAAEAV?$allocator@UMove@reversi@@@2@XZ
	?_Get_first@?$_Compressed_pair@V?$allocator@UMove@reversi@@@std@@V?$_Vector_val@U?$_Simple_types@UMove@reversi@@@std@@@2@$00@std@@QEBAAEBV?$allocator@UMove@reversi@@@2@XZ
	?_Getal@?$vector@UMove@reversi@@V?$allocator@UMove@reversi@@@std@@@std@@AEAAAEAV?$allocator@UMove@reversi@@@2@XZ
	?_Getal@?$vector@UMove@reversi@@V?$allocator@UMove@reversi@@@std@@@std@@AEBAAEBV?$allocator@UMove@reversi@@@2@XZ
	?_Orphan_all@_Container_base0@std@@QEAAXXZ
	?_Orphan_range@?$vector@UMove@reversi@@V?$allocator@UMove@reversi@@@std@@@std@@AEBAXPEAUMove@reversi@@0@Z
	?_Release@?$_Uninitialized_backout_al@V?$allocator@UMove@reversi@@@std@@@std@@QEAAPEAUMove@reversi@@XZ
	?_Swap_proxy_and_iterators@_Container_base0@std@@QEAAXAEAU12@@Z
	?_Throw_bad_array_new_length@std@@YAXXZ
	?_Tidy@?$vector@UMove@reversi@@V?$allocator@UMove@reversi@@@std@@@std@@AEAAXXZ
	?_Unchecked_begin@?$array@W4Cell@reversi@@$0EA@@std@@QEBAPEBW4Cell@reversi@@XZ
	?_Unchecked_begin@?$vector@UMove@reversi@@V?$allocator@UMove@reversi@@@std@@@std@@QEAAPEAUMove@reversi@@XZ
	?_Unchecked_end@?$array@W4Cell@reversi@@$0EA@@std@@QEBAPEBW4Cell@reversi@@XZ
	?_Unchecked_end@?$vector@UMove@reversi@@V?$allocator@UMove@reversi@@@std@@@std@@QEAAPEAUMove@reversi@@XZ
	?_Xlength@?$vector@UMove@reversi@@V?$allocator@UMove@reversi@@@std@@@std@@CAXXZ
	?allocate@?$allocator@UMove@reversi@@@std@@QEAAPEAUMove@reversi@@_K@Z
	?applyDirection@Board@reversi@@AEAAHW4Player@2@HHHH@Z
	?applyMove@Board@reversi@@QEAA_NW4Player@2@HH@Z
	?capacity@?$vector@UMove@reversi@@V?$allocator@UMove@reversi@@@std@@@std@@QEBA_KXZ
	?currentPlayer@Game@reversi@@QEBA?AW4Player@2@XZ
	?data@Board@reversi@@QEBAAEBV?$array@W4Cell@reversi@@$0EA@@std@@XZ
	?deallocate@?$allocator@UMove@reversi@@@std@@QEAAXQEAUMove@reversi@@_K@Z
	?empty@?$vector@UMove@reversi@@V?$allocator@UMove@reversi@@@std@@@std@@QEBA_NXZ
	?evaluate@AI@reversi@@CAHAEBVBoard@2@W4Player@2@@Z
	?fill@?$array@W4Cell@reversi@@$0EA@@std@@QEAAXAEBW4Cell@reversi@@@Z
	?getBestMove@AI@reversi@@SA?AUMove@2@AEBVBoard@2@W4Player@2@H@Z
	?getBestMove@Game@reversi@@QEBA?AUMove@2@H@Z
	?getBoard@Game@reversi@@QEBAAEBVBoard@2@XZ
	?getCell@Board@reversi@@QEBA?AW4Cell@2@HH@Z
	?getScore@Board@reversi@@QEBA?AU?$pair@HH@std@@XZ
	?getValidMoves@Board@reversi@@QEBA?AV?$vector@UMove@reversi@@V?$allocator@UMove@reversi@@@std@@@std@@W4Player@2@@Z
	?hasAnyValidMove@Board@reversi@@QEBA_NW4Player@2@@Z
	?inBounds@Board@reversi@@CA_NHH@Z
	?isValidMove@Board@reversi@@QEBA_NW4Player@2@HH@Z
	?makeMove@Game@reversi@@QEAA_NHH@Z
	?max@?$numeric_limits@H@std@@SAHXZ
	?max_size@?$_Default_allocator_traits@V?$allocator@UMove@reversi@@@std@@@std@@SA_KAEBV?$allocator@UMove@reversi@@@2@@Z
	?max_size@?$vector@UMove@reversi@@V?$allocator@UMove@reversi@@@std@@@std@@QEBA_KXZ
	?min@?$numeric_limits@H@std@@SAHXZ
	?minimax@AI@reversi@@CAHVBoard@2@HHHW4Player@2@1@Z
	?passTurn@Game@reversi@@QEAAXXZ
	?push_back@?$vector@UMove@reversi@@V?$allocator@UMove@reversi@@@std@@@std@@QEAAX$$QEAUMove@reversi@@@Z
	?reset@Board@reversi@@QEAAXXZ
	?reset@Game@reversi@@QEAAXXZ
	?result@Game@reversi@@QEBA?AW4GameResult@2@XZ
	?score@Game@reversi@@QEBA?AU?$pair@HH@std@@XZ
	?setCell@Board@reversi@@QEAAXHHW4Cell@2@@Z
	?size@?$array@W4Cell@reversi@@$0EA@@std@@QEBA_KXZ
	?size@?$vector@UMove@reversi@@V?$allocator@UMove@reversi@@@std@@@std@@QEBA_KXZ
	?validMoves@Game@reversi@@QEBA?AV?$vector@UMove@reversi@@V?$allocator@UMove@reversi@@@std@@@std@@XZ
	?what@exception@std@@UEBAPEBDXZ
	?willFlipInDirection@Board@reversi@@AEBA_NW4Player@2@HHHH@Z
	create_game
	current_player
	destroy_game
	get_best_move
	get_board
	get_board_size
	get_cell
	get_result
	get_score
	get_valid_moves
	make_move
	pass_turn
	reset_game
